; Function Attrs: mustprogress nounwind uwtable
define hidden void @_ZN19ShenandoahGCSessionD2Ev(ptr noundef nonnull align 8 dereferenceable(56) %0) unnamed_addr #0 align 2 {
  %2 = alloca %class.TimeInstant, align 8
  %3 = alloca %class.TimeInstant, align 16
  %4 = load ptr, ptr %0, align 8
  %5 = getelementptr inbounds i8, ptr %4, i64 1648
  %6 = load ptr, ptr %5, align 8
  %7 = load ptr, ptr %6, align 8
  %8 = getelementptr inbounds i8, ptr %7, i64 32
  %9 = load ptr, ptr %8, align 8
  tail call void %9(ptr noundef nonnull align 8 dereferenceable(193) %6) #12
  %10 = getelementptr inbounds i8, ptr %0, i64 8
  %11 = load ptr, ptr %10, align 8
  %12 = tail call { i64, i64 } @_ZN29CompositeElapsedCounterSource3nowEv() #12
  %13 = extractvalue { i64, i64 } %12, 0
  store i64 %13, ptr %2, align 8
  %14 = getelementptr inbounds i8, ptr %2, i64 8
  %15 = extractvalue { i64, i64 } %12, 1
  store i64 %15, ptr %14, align 8
  %16 = load ptr, ptr %11, align 8
  %17 = getelementptr inbounds i8, ptr %16, i64 8
  %18 = load ptr, ptr %17, align 8
  call void %18(ptr noundef nonnull align 8 dereferenceable(112) %11, ptr noundef nonnull align 8 dereferenceable(16) %2) #12
  %19 = load ptr, ptr %0, align 8
  %20 = getelementptr inbounds i8, ptr %0, i64 16
  %21 = load ptr, ptr %20, align 8
  call void @_ZN13CollectedHeap19trace_heap_after_gcEPK8GCTracer(ptr noundef nonnull align 8 dereferenceable(104) %19, ptr noundef %21) #12
  %22 = load ptr, ptr %20, align 8
  %23 = load ptr, ptr %0, align 8
  %24 = getelementptr inbounds i8, ptr %23, i64 2104
  %25 = load ptr, ptr %24, align 8
  %26 = getelementptr inbounds i8, ptr %25, i64 48
  call void @_ZNK8GCTracer25report_gc_reference_statsERK23ReferenceProcessorStats(ptr noundef nonnull align 8 dereferenceable(80) %22, ptr noundef nonnull align 8 dereferenceable(32) %26) #12
  %27 = load ptr, ptr %20, align 8
  %28 = load ptr, ptr %10, align 8
  %29 = getelementptr inbounds i8, ptr %28, i64 24
  %30 = load <2 x i64>, ptr %29, align 8
  store <2 x i64> %30, ptr %3, align 16
  %31 = getelementptr inbounds i8, ptr %28, i64 40
  call void @_ZN8GCTracer13report_gc_endERK11TimeInstantI30CompositeCounterRepresentation29CompositeElapsedCounterSourceEP14TimePartitions(ptr noundef nonnull align 8 dereferenceable(80) %27, ptr noundef nonnull align 8 dereferenceable(16) %3, ptr noundef nonnull %31) #12
  %32 = load ptr, ptr %0, align 8
  call void @_ZN13CollectedHeap12set_gc_causeEN7GCCause5CauseE(ptr noundef nonnull align 8 dereferenceable(104) %32, i32 noundef 11) #12
  %33 = getelementptr inbounds i8, ptr %0, i64 24
  call void @_ZN23TraceMemoryManagerStatsD1Ev(ptr noundef nonnull align 8 dereferenceable(32) %33) #12
  ret void
}